Certificate:
    Data:
        Version: 3 (0x2)
        Serial Number: 1 (0x1)
        Signature Algorithm: sha256WithRSAEncryption
        Issuer: CN=devcert
        Validity
            Not Before: Apr 25 23:03:03 2020 GMT
            Not After : Jul 29 23:03:03 2022 GMT
        Subject: CN=localhost
        Subject Public Key Info:
            Public Key Algorithm: rsaEncryption
                RSA Public-Key: (2048 bit)
                Modulus:
                    00:95:30:76:86:b7:4f:b5:24:1a:5e:28:ba:26:ed:
                    35:cc:1e:1b:20:7c:dd:be:d7:30:26:f0:51:0e:18:
                    fb:f1:10:ac:03:cd:b3:29:61:0a:24:a5:de:d2:de:
                    ae:e6:df:5e:54:36:08:5c:26:2f:82:22:55:51:e4:
                    33:c9:62:ee:1a:64:e9:b1:52:62:12:3d:be:63:0d:
                    0a:e2:31:79:88:3a:49:e3:09:88:23:83:39:8d:b9:
                    35:83:43:d6:be:d2:e3:0b:f4:4a:8e:a0:24:ca:1d:
                    6f:49:54:23:e3:5e:e0:e8:f4:cf:82:6c:59:2d:31:
                    c8:3b:1a:9a:1d:75:ff:4d:c1:df:85:4b:81:22:24:
                    ef:55:38:9b:63:fd:9e:1a:5f:5c:26:ad:fa:98:38:
                    0b:5a:77:d4:de:83:d9:9e:2b:5e:39:38:08:5a:ce:
                    98:44:fc:3f:67:92:3d:eb:78:a7:56:96:99:f9:66:
                    66:5a:f1:6d:15:8f:f4:69:45:2f:b7:f5:c4:61:cb:
                    f4:17:b7:0a:6a:5f:19:4e:82:d9:2d:26:f6:18:de:
                    6b:61:1b:c0:82:22:6a:42:f7:68:3b:b5:32:4e:cb:
                    5d:de:49:76:50:0e:37:6f:1c:ad:00:71:a3:d4:22:
                    5d:56:33:f7:f8:a7:39:0e:85:8c:d5:86:50:03:fa:
                    bd:9b
                Exponent: 65537 (0x10001)
        X509v3 extensions:
            X509v3 Basic Constraints: critical
                CA:FALSE
            X509v3 Subject Key Identifier: 
                79:47:DC:6D:DC:62:A5:C9:16:3B:BA:B8:55:61:C6:98:68:99:3B:60
            X509v3 Authority Key Identifier: 
                keyid:7D:E0:82:FD:77:CB:BF:6D:48:56:CE:F7:81:89:29:E2:1C:CE:EF:C4
                DirName:/CN=devcert
                serial:7C:46:9B:8A:52:16:26:AD:DE:7A:45:3F:80:16:8A:D5:3C:13:12:AA

            X509v3 Key Usage: critical
                Digital Signature, Key Encipherment
            X509v3 Extended Key Usage: 
                TLS Web Server Authentication
            X509v3 Subject Alternative Name: 
                DNS:localhost, DNS:*.localhost
    Signature Algorithm: sha256WithRSAEncryption
         68:d4:56:bf:84:52:f8:de:9b:6a:0c:f2:7d:70:91:10:ab:af:
         66:9e:8d:57:e5:b1:53:49:76:16:a1:2b:6a:81:78:29:6c:c8:
         ad:2e:f8:ac:40:cf:cb:63:69:15:33:44:ab:f4:af:fb:12:63:
         92:46:63:60:1f:c7:be:4e:9a:5a:b9:a1:21:18:b1:d8:97:de:
         be:6e:92:e2:95:34:e9:3f:d9:29:3d:4c:0e:d1:32:21:7c:ac:
         f0:1a:c2:c5:14:2e:e9:5a:4e:1a:f4:d7:94:c5:8f:72:cb:86:
         1f:be:d4:9b:36:4a:f7:42:cd:4a:27:7e:24:1c:ba:7f:c3:9a:
         4b:c0:3f:ef:3c:5d:e7:78:a7:20:f4:d3:fb:b1:b1:d5:16:cd:
         e1:fc:f1:8c:72:a4:77:72:b5:a3:c9:b4:08:61:3e:20:72:48:
         b5:99:7b:dd:bb:9a:47:68:da:29:9f:93:69:97:0e:b0:9d:91:
         7b:99:8b:d1:92:14:d1:c9:79:73:d2:b1:54:96:17:54:55:77:
         6e:0a:32:62:7d:29:ab:63:ba:11:d5:a5:4e:93:bc:19:e0:d0:
         b4:17:ee:ce:ff:52:ca:32:98:6c:51:5c:84:1f:e5:d6:68:a7:
         e5:83:ac:1d:d8:61:ef:fa:43:09:68:3a:86:d9:11:c9:dd:39:
         c9:57:2c:a1
-----BEGIN CERTIFICATE-----
MIIDaTCCAlGgAwIBAgIBATANBgkqhkiG9w0BAQsFADASMRAwDgYDVQQDDAdkZXZj
ZXJ0MB4XDTIwMDQyNTIzMDMwM1oXDTIyMDcyOTIzMDMwM1owFDESMBAGA1UEAwwJ
bG9jYWxob3N0MIIBIjANBgkqhkiG9w0BAQEFAAOCAQ8AMIIBCgKCAQEAlTB2hrdP
tSQaXii6Ju01zB4bIHzdvtcwJvBRDhj78RCsA82zKWEKJKXe0t6u5t9eVDYIXCYv
giJVUeQzyWLuGmTpsVJiEj2+Yw0K4jF5iDpJ4wmII4M5jbk1g0PWvtLjC/RKjqAk
yh1vSVQj417g6PTPgmxZLTHIOxqaHXX/TcHfhUuBIiTvVTibY/2eGl9cJq36mDgL
WnfU3oPZniteOTgIWs6YRPw/Z5I963inVpaZ+WZmWvFtFY/0aUUvt/XEYcv0F7cK
al8ZToLZLSb2GN5rYRvAgiJqQvdoO7UyTstd3kl2UA43bxytAHGj1CJdVjP3+Kc5
DoWM1YZQA/q9mwIDAQABo4HHMIHEMAwGA1UdEwEB/wQCMAAwHQYDVR0OBBYEFHlH
3G3cYqXJFju6uFVhxphomTtgME0GA1UdIwRGMESAFH3ggv13y79tSFbO94GJKeIc
zu/EoRakFDASMRAwDgYDVQQDDAdkZXZjZXJ0ghR8RpuKUhYmrd56RT+AForVPBMS
qjAOBgNVHQ8BAf8EBAMCBaAwEwYDVR0lBAwwCgYIKwYBBQUHAwEwIQYDVR0RBBow
GIIJbG9jYWxob3N0ggsqLmxvY2FsaG9zdDANBgkqhkiG9w0BAQsFAAOCAQEAaNRW
v4RS+N6bagzyfXCREKuvZp6NV+WxU0l2FqEraoF4KWzIrS74rEDPy2NpFTNEq/Sv
+xJjkkZjYB/Hvk6aWrmhIRix2Jfevm6S4pU06T/ZKT1MDtEyIXys8BrCxRQu6VpO
GvTXlMWPcsuGH77UmzZK90LNSid+JBy6f8OaS8A/7zxd53inIPTT+7Gx1RbN4fzx
jHKkd3K1o8m0CGE+IHJItZl73buaR2jaKZ+TaZcOsJ2Re5mL0ZIU0cl5c9KxVJYX
VFV3bgoyYn0pq2O6EdWlTpO8GeDQtBfuzv9SyjKYbFFchB/l1min5YOsHdhh7/pD
CWg6htkRyd05yVcsoQ==
-----END CERTIFICATE-----
